target datalayout = "e-m:e-p270:32:32-p271:32:32-p272:64:64-i64:64-i128:128-f80:128-n8:16:32:64-S128"
target triple = "x86_64-pc-linux-gnu"

%struct.SplashStream = type { ptr, ptr, ptr, %union.anon }
%union.anon = type { %struct.anon.0 }
%struct.anon.0 = type { ptr, ptr }

; Function Attrs: nounwind uwtable
define hidden i32 @SplashStreamInitMemory(ptr noundef %0, ptr noundef %1, i32 noundef %2) #0 {
  %4 = alloca ptr, align 8
  %5 = alloca ptr, align 8
  %6 = alloca i32, align 4
  store ptr %0, ptr %4, align 8
  store ptr %1, ptr %5, align 8
  store i32 %2, ptr %6, align 4
  %7 = load ptr, ptr %5, align 8
  %8 = load ptr, ptr %4, align 8
  %9 = getelementptr inbounds %struct.SplashStream, ptr %8, i32 0, i32 3
  %10 = getelementptr inbounds %struct.anon.0, ptr %9, i32 0, i32 0
  store ptr %7, ptr %10, align 8
  %11 = load ptr, ptr %5, align 8
  %12 = load i32, ptr %6, align 4
  %13 = sext i32 %12 to i64
  %14 = getelementptr inbounds i8, ptr %11, i64 %13
  %15 = load ptr, ptr %4, align 8
  %16 = getelementptr inbounds %struct.SplashStream, ptr %15, i32 0, i32 3
  %17 = getelementptr inbounds %struct.anon.0, ptr %16, i32 0, i32 1
  store ptr %14, ptr %17, align 8
  %18 = load ptr, ptr %4, align 8
  %19 = getelementptr inbounds %struct.SplashStream, ptr %18, i32 0, i32 0
  store ptr @readMem, ptr %19, align 8
  %20 = load ptr, ptr %4, align 8
  %21 = getelementptr inbounds %struct.SplashStream, ptr %20, i32 0, i32 1
  store ptr @peekMem, ptr %21, align 8
  %22 = load ptr, ptr %4, align 8
  %23 = getelementptr inbounds %struct.SplashStream, ptr %22, i32 0, i32 2
  store ptr @closeMem, ptr %23, align 8
  ret i32 1
}