; Function Attrs: mustprogress nofree norecurse nosync nounwind willreturn memory(argmem: write) uwtable
define hidden noundef i32 @SplashStreamInitMemory(ptr nocapture noundef writeonly %0, ptr noundef %1, i32 noundef %2) local_unnamed_addr #9 {
  %4 = getelementptr inbounds i8, ptr %0, i64 24
  store ptr %1, ptr %4, align 8
  %5 = sext i32 %2 to i64
  %6 = getelementptr inbounds i8, ptr %1, i64 %5
  %7 = getelementptr inbounds i8, ptr %0, i64 32
  store ptr %6, ptr %7, align 8
  store ptr @readMem, ptr %0, align 8
  %8 = getelementptr inbounds i8, ptr %0, i64 8
  store ptr @peekMem, ptr %8, align 8
  %9 = getelementptr inbounds i8, ptr %0, i64 16
  store ptr @closeMem, ptr %9, align 8
  ret i32 1
}